target datalayout = "e-m:e-p270:32:32-p271:32:32-p272:64:64-i64:64-i128:128-f80:128-n8:16:32:64-S128"
target triple = "x86_64-pc-linux-gnu"

%struct.Gia_Man_t_ = type { ptr, ptr, i32, i32, i32, i32, ptr, ptr, i32, i32, i32, ptr, ptr, %struct.Vec_Int_t_, %struct.Vec_Int_t_, i32, i32, i32, %struct.Vec_Int_t_, ptr, ptr, ptr, i32, i32, i32, i32, ptr, ptr, ptr, ptr, ptr, i32, i32, ptr, i32, ptr, ptr, ptr, ptr, ptr, ptr, ptr, ptr, ptr, ptr, ptr, ptr, ptr, ptr, ptr, ptr, ptr, ptr, %struct.Vec_Int_t_, %struct.Vec_Int_t_, ptr, ptr, ptr, ptr, ptr, ptr, ptr, ptr, ptr, ptr, ptr, ptr, ptr, ptr, ptr, ptr, ptr, ptr, ptr, ptr, ptr, i32, float, float, ptr, ptr, i32, ptr, ptr, ptr, ptr, ptr, ptr, ptr, ptr, ptr, ptr, ptr, ptr, ptr, ptr, ptr, i64, i64, ptr, ptr, i32, i32, i32, i32, i32, i32, i32, i32, i32, i32, i32, i32, ptr, ptr, ptr, ptr, ptr, ptr, ptr, ptr, i32, i32, i32, ptr, i32, i32, ptr, ptr, ptr, ptr, ptr, ptr, i32, i32, ptr, %struct.Vec_Int_t_, %struct.Vec_Int_t_, %struct.Vec_Int_t_, ptr, ptr, ptr, i32, i32, i32, i32, ptr, ptr, ptr, ptr, ptr }
%struct.Vec_Int_t_ = type { i32, i32, ptr }

; Function Attrs: inlinehint nounwind uwtable
define internal i32 @Gia_ObjFaninId1(ptr noundef %0, i32 noundef %1) #3 {
  %3 = alloca ptr, align 8
  %4 = alloca i32, align 4
  store ptr %0, ptr %3, align 8, !tbaa !8
  store i32 %1, ptr %4, align 4, !tbaa !12
  %5 = load i32, ptr %4, align 4, !tbaa !12
  %6 = load ptr, ptr %3, align 8, !tbaa !8
  %7 = load i64, ptr %6, align 4
  %8 = lshr i64 %7, 32
  %9 = and i64 %8, 536870911
  %10 = trunc i64 %9 to i32
  %11 = sub nsw i32 %5, %10
  ret i32 %11
}

; Function Attrs: inlinehint nounwind uwtable
define internal i32 @Gia_ObjFaninId0(ptr noundef %0, i32 noundef %1) #3 {
  %3 = alloca ptr, align 8
  %4 = alloca i32, align 4
  store ptr %0, ptr %3, align 8, !tbaa !8
  store i32 %1, ptr %4, align 4, !tbaa !12
  %5 = load i32, ptr %4, align 4, !tbaa !12
  %6 = load ptr, ptr %3, align 8, !tbaa !8
  %7 = load i64, ptr %6, align 4
  %8 = and i64 %7, 536870911
  %9 = trunc i64 %8 to i32
  %10 = sub nsw i32 %5, %9
  ret i32 %10
}

; Function Attrs: inlinehint nounwind uwtable
define internal i32 @Gia_ObjFaninId1p(ptr noundef %0, ptr noundef %1) #3 {
  %3 = alloca ptr, align 8
  %4 = alloca ptr, align 8
  store ptr %0, ptr %3, align 8, !tbaa !3
  store ptr %1, ptr %4, align 8, !tbaa !8
  %5 = load ptr, ptr %4, align 8, !tbaa !8
  %6 = load ptr, ptr %3, align 8, !tbaa !3
  %7 = load ptr, ptr %4, align 8, !tbaa !8
  %8 = call i32 @Gia_ObjId(ptr noundef %6, ptr noundef %7)
  %9 = call i32 @Gia_ObjFaninId1(ptr noundef %5, i32 noundef %8)
  ret i32 %9
}

; Function Attrs: inlinehint nounwind uwtable
define internal i32 @Gia_ObjFaninId0p(ptr noundef %0, ptr noundef %1) #3 {
  %3 = alloca ptr, align 8
  %4 = alloca ptr, align 8
  store ptr %0, ptr %3, align 8, !tbaa !3
  store ptr %1, ptr %4, align 8, !tbaa !8
  %5 = load ptr, ptr %4, align 8, !tbaa !8
  %6 = load ptr, ptr %3, align 8, !tbaa !3
  %7 = load ptr, ptr %4, align 8, !tbaa !8
  %8 = call i32 @Gia_ObjId(ptr noundef %6, ptr noundef %7)
  %9 = call i32 @Gia_ObjFaninId0(ptr noundef %5, i32 noundef %8)
  ret i32 %9
}

; Function Attrs: inlinehint nounwind uwtable
define internal i32 @Gia_ObjIsAnd(ptr noundef %0) #3 {
  %2 = alloca ptr, align 8
  store ptr %0, ptr %2, align 8, !tbaa !8
  %3 = load ptr, ptr %2, align 8, !tbaa !8
  %4 = load i64, ptr %3, align 4
  %5 = lshr i64 %4, 31
  %6 = and i64 %5, 1
  %7 = trunc i64 %6 to i32
  %8 = icmp ne i32 %7, 0
  br i1 %8, label %15, label %9

9:                                                ; preds = %1
  %10 = load ptr, ptr %2, align 8, !tbaa !8
  %11 = load i64, ptr %10, align 4
  %12 = and i64 %11, 536870911
  %13 = trunc i64 %12 to i32
  %14 = icmp ne i32 %13, 536870911
  br label %15

15:                                               ; preds = %9, %1
  %16 = phi i1 [ false, %1 ], [ %14, %9 ]
  %17 = zext i1 %16 to i32
  ret i32 %17
}

; Function Attrs: inlinehint nounwind uwtable
define internal i32 @Gia_ObjId(ptr noundef %0, ptr noundef %1) #3 {
  %3 = alloca ptr, align 8
  %4 = alloca ptr, align 8
  store ptr %0, ptr %3, align 8, !tbaa !3
  store ptr %1, ptr %4, align 8, !tbaa !8
  %5 = load ptr, ptr %4, align 8, !tbaa !8
  %6 = load ptr, ptr %3, align 8, !tbaa !3
  %7 = getelementptr inbounds nuw %struct.Gia_Man_t_, ptr %6, i32 0, i32 6
  %8 = load ptr, ptr %7, align 8, !tbaa !14
  %9 = ptrtoint ptr %5 to i64
  %10 = ptrtoint ptr %8 to i64
  %11 = sub i64 %9, %10
  %12 = sdiv exact i64 %11, 12
  %13 = trunc i64 %12 to i32
  ret i32 %13
}

; Function Attrs: inlinehint nounwind uwtable
define internal ptr @Gia_Regular(ptr noundef %0) #3 {
  %2 = alloca ptr, align 8
  store ptr %0, ptr %2, align 8, !tbaa !8
  %3 = load ptr, ptr %2, align 8, !tbaa !8
  %4 = ptrtoint ptr %3 to i64
  %5 = and i64 %4, -2
  %6 = inttoptr i64 %5 to ptr
  ret ptr %6
}

; Function Attrs: nounwind uwtable
define i32 @Acec_DetectBoothXorMux(ptr noundef %0, ptr noundef %1, ptr noundef %2, ptr noundef %3) #0 {
  %5 = alloca i32, align 4
  %6 = alloca ptr, align 8
  %7 = alloca ptr, align 8
  %8 = alloca ptr, align 8
  %9 = alloca ptr, align 8
  %10 = alloca ptr, align 8
  %11 = alloca ptr, align 8
  %12 = alloca ptr, align 8
  %13 = alloca ptr, align 8
  %14 = alloca ptr, align 8
  %15 = alloca i32, align 4
  %16 = alloca ptr, align 8
  store ptr %0, ptr %6, align 8, !tbaa !3
  store ptr %1, ptr %7, align 8, !tbaa !8
  store ptr %2, ptr %8, align 8, !tbaa !8
  store ptr %3, ptr %9, align 8, !tbaa !10
  call void @llvm.lifetime.start.p0(i64 8, ptr %10) #8
  call void @llvm.lifetime.start.p0(i64 8, ptr %11) #8
  call void @llvm.lifetime.start.p0(i64 8, ptr %12) #8
  call void @llvm.lifetime.start.p0(i64 8, ptr %13) #8
  call void @llvm.lifetime.start.p0(i64 8, ptr %14) #8
  %17 = load ptr, ptr %7, align 8, !tbaa !8
  %18 = call i32 @Gia_ObjIsMuxType(ptr noundef %17)
  %19 = icmp ne i32 %18, 0
  br i1 %19, label %20, label %24

20:                                               ; preds = %4
  %21 = load ptr, ptr %8, align 8, !tbaa !8
  %22 = call i32 @Gia_ObjIsMuxType(ptr noundef %21)
  %23 = icmp ne i32 %22, 0
  br i1 %23, label %25, label %24

24:                                               ; preds = %20, %4
  store i32 0, ptr %5, align 4
  store i32 1, ptr %15, align 4
  br label %116

25:                                               ; preds = %20
  %26 = load ptr, ptr %8, align 8, !tbaa !8
  %27 = call i32 @Gia_ObjRecognizeExor(ptr noundef %26, ptr noundef %10, ptr noundef %11)
  %28 = icmp ne i32 %27, 0
  br i1 %28, label %30, label %29

29:                                               ; preds = %25
  store i32 0, ptr %5, align 4
  store i32 1, ptr %15, align 4
  br label %116

30:                                               ; preds = %25
  %31 = load ptr, ptr %10, align 8, !tbaa !8
  %32 = call ptr @Gia_Regular(ptr noundef %31)
  store ptr %32, ptr %10, align 8, !tbaa !8
  %33 = load ptr, ptr %11, align 8, !tbaa !8
  %34 = call ptr @Gia_Regular(ptr noundef %33)
  store ptr %34, ptr %11, align 8, !tbaa !8
  %35 = load ptr, ptr %6, align 8, !tbaa !3
  %36 = load ptr, ptr %10, align 8, !tbaa !8
  %37 = call i32 @Gia_ObjId(ptr noundef %35, ptr noundef %36)
  %38 = load ptr, ptr %6, align 8, !tbaa !3
  %39 = load ptr, ptr %11, align 8, !tbaa !8
  %40 = call i32 @Gia_ObjId(ptr noundef %38, ptr noundef %39)
  %41 = icmp sgt i32 %37, %40
  br i1 %41, label %42, label %46

42:                                               ; preds = %30
  call void @llvm.lifetime.start.p0(i64 8, ptr %16) #8
  %43 = load ptr, ptr %10, align 8, !tbaa !8
  store ptr %43, ptr %16, align 8, !tbaa !8
  %44 = load ptr, ptr %11, align 8, !tbaa !8
  store ptr %44, ptr %10, align 8, !tbaa !8
  %45 = load ptr, ptr %16, align 8, !tbaa !8
  store ptr %45, ptr %11, align 8, !tbaa !8
  call void @llvm.lifetime.end.p0(i64 8, ptr %16) #8
  br label %46

46:                                               ; preds = %42, %30
  %47 = load ptr, ptr %7, align 8, !tbaa !8
  %48 = call ptr @Gia_ObjRecognizeMux(ptr noundef %47, ptr noundef %12, ptr noundef %13)
  store ptr %48, ptr %14, align 8, !tbaa !8
  %49 = icmp ne ptr %48, null
  br i1 %49, label %51, label %50

50:                                               ; preds = %46
  store i32 0, ptr %5, align 4
  store i32 1, ptr %15, align 4
  br label %116

51:                                               ; preds = %46
  %52 = load ptr, ptr %12, align 8, !tbaa !8
  %53 = call ptr @Gia_Regular(ptr noundef %52)
  store ptr %53, ptr %12, align 8, !tbaa !8
  %54 = load ptr, ptr %13, align 8, !tbaa !8
  %55 = call ptr @Gia_Regular(ptr noundef %54)
  store ptr %55, ptr %13, align 8, !tbaa !8
  %56 = load ptr, ptr %14, align 8, !tbaa !8
  %57 = call ptr @Gia_Regular(ptr noundef %56)
  store ptr %57, ptr %14, align 8, !tbaa !8
  %58 = load ptr, ptr %12, align 8, !tbaa !8
  %59 = call i32 @Gia_ObjIsAnd(ptr noundef %58)
  %60 = icmp ne i32 %59, 0
  br i1 %60, label %61, label %65

61:                                               ; preds = %51
  %62 = load ptr, ptr %13, align 8, !tbaa !8
  %63 = call i32 @Gia_ObjIsAnd(ptr noundef %62)
  %64 = icmp ne i32 %63, 0
  br i1 %64, label %66, label %65

65:                                               ; preds = %61, %51
  store i32 0, ptr %5, align 4
  store i32 1, ptr %15, align 4
  br label %116

66:                                               ; preds = %61
  %67 = load ptr, ptr %6, align 8, !tbaa !3
  %68 = load ptr, ptr %12, align 8, !tbaa !8
  %69 = call i32 @Gia_ObjFaninId0p(ptr noundef %67, ptr noundef %68)
  %70 = load ptr, ptr %6, align 8, !tbaa !3
  %71 = load ptr, ptr %13, align 8, !tbaa !8
  %72 = call i32 @Gia_ObjFaninId0p(ptr noundef %70, ptr noundef %71)
  %73 = icmp ne i32 %69, %72
  br i1 %73, label %82, label %74

74:                                               ; preds = %66
  %75 = load ptr, ptr %6, align 8, !tbaa !3
  %76 = load ptr, ptr %12, align 8, !tbaa !8
  %77 = call i32 @Gia_ObjFaninId1p(ptr noundef %75, ptr noundef %76)
  %78 = load ptr, ptr %6, align 8, !tbaa !3
  %79 = load ptr, ptr %13, align 8, !tbaa !8
  %80 = call i32 @Gia_ObjFaninId1p(ptr noundef %78, ptr noundef %79)
  %81 = icmp ne i32 %77, %80
  br i1 %81, label %82, label %83

82:                                               ; preds = %74, %66
  store i32 0, ptr %5, align 4
  store i32 1, ptr %15, align 4
  br label %116

83:                                               ; preds = %74
  %84 = load ptr, ptr %6, align 8, !tbaa !3
  %85 = load ptr, ptr %12, align 8, !tbaa !8
  %86 = call i32 @Gia_ObjFaninId0p(ptr noundef %84, ptr noundef %85)
  %87 = load ptr, ptr %6, align 8, !tbaa !3
  %88 = load ptr, ptr %10, align 8, !tbaa !8
  %89 = call i32 @Gia_ObjId(ptr noundef %87, ptr noundef %88)
  %90 = icmp ne i32 %86, %89
  br i1 %90, label %99, label %91

91:                                               ; preds = %83
  %92 = load ptr, ptr %6, align 8, !tbaa !3
  %93 = load ptr, ptr %12, align 8, !tbaa !8
  %94 = call i32 @Gia_ObjFaninId1p(ptr noundef %92, ptr noundef %93)
  %95 = load ptr, ptr %6, align 8, !tbaa !3
  %96 = load ptr, ptr %11, align 8, !tbaa !8
  %97 = call i32 @Gia_ObjId(ptr noundef %95, ptr noundef %96)
  %98 = icmp ne i32 %94, %97
  br i1 %98, label %99, label %100

99:                                               ; preds = %91, %83
  store i32 0, ptr %5, align 4
  store i32 1, ptr %15, align 4
  br label %116

100:                                              ; preds = %91
  %101 = load ptr, ptr %6, align 8, !tbaa !3
  %102 = load ptr, ptr %10, align 8, !tbaa !8
  %103 = call i32 @Gia_ObjId(ptr noundef %101, ptr noundef %102)
  %104 = load ptr, ptr %9, align 8, !tbaa !10
  %105 = getelementptr inbounds i32, ptr %104, i64 0
  store i32 %103, ptr %105, align 4, !tbaa !12
  %106 = load ptr, ptr %6, align 8, !tbaa !3
  %107 = load ptr, ptr %11, align 8, !tbaa !8
  %108 = call i32 @Gia_ObjId(ptr noundef %106, ptr noundef %107)
  %109 = load ptr, ptr %9, align 8, !tbaa !10
  %110 = getelementptr inbounds i32, ptr %109, i64 1
  store i32 %108, ptr %110, align 4, !tbaa !12
  %111 = load ptr, ptr %6, align 8, !tbaa !3
  %112 = load ptr, ptr %14, align 8, !tbaa !8
  %113 = call i32 @Gia_ObjId(ptr noundef %111, ptr noundef %112)
  %114 = load ptr, ptr %9, align 8, !tbaa !10
  %115 = getelementptr inbounds i32, ptr %114, i64 2
  store i32 %113, ptr %115, align 4, !tbaa !12
  store i32 1, ptr %5, align 4
  store i32 1, ptr %15, align 4
  br label %116

116:                                              ; preds = %100, %99, %82, %65, %50, %29, %24
  call void @llvm.lifetime.end.p0(i64 8, ptr %14) #8
  call void @llvm.lifetime.end.p0(i64 8, ptr %13) #8
  call void @llvm.lifetime.end.p0(i64 8, ptr %12) #8
  call void @llvm.lifetime.end.p0(i64 8, ptr %11) #8
  call void @llvm.lifetime.end.p0(i64 8, ptr %10) #8
  %117 = load i32, ptr %5, align 4
  ret i32 %117
}