; Function Attrs: nounwind uwtable
define range(i32 0, 2) i32 @Acec_DetectBoothXorMux(ptr noundef readonly captures(none) %0, ptr noundef %1, ptr noundef %2, ptr noundef writeonly captures(none) %3) local_unnamed_addr #0 {
  %5 = alloca ptr, align 8
  %6 = alloca ptr, align 8
  %7 = alloca ptr, align 8
  %8 = alloca ptr, align 8
  call void @llvm.lifetime.start.p0(i64 8, ptr nonnull %5) #10
  call void @llvm.lifetime.start.p0(i64 8, ptr nonnull %6) #10
  call void @llvm.lifetime.start.p0(i64 8, ptr nonnull %7) #10
  call void @llvm.lifetime.start.p0(i64 8, ptr nonnull %8) #10
  %9 = tail call i32 @Gia_ObjIsMuxType(ptr noundef %1) #10
  %.not = icmp eq i32 %9, 0
  br i1 %.not, label %94, label %10

10:                                               ; preds = %4
  %11 = tail call i32 @Gia_ObjIsMuxType(ptr noundef %2) #10
  %.not24 = icmp eq i32 %11, 0
  br i1 %.not24, label %94, label %12

12:                                               ; preds = %10
  %13 = call i32 @Gia_ObjRecognizeExor(ptr noundef %2, ptr noundef nonnull %5, ptr noundef nonnull %6) #10
  %.not25 = icmp eq i32 %13, 0
  br i1 %.not25, label %94, label %14

14:                                               ; preds = %12
  %15 = load ptr, ptr %5, align 8, !tbaa !3
  %16 = ptrtoint ptr %15 to i64
  %17 = and i64 %16, -2
  %18 = inttoptr i64 %17 to ptr
  store ptr %18, ptr %5, align 8, !tbaa !3
  %19 = load ptr, ptr %6, align 8, !tbaa !3
  %20 = ptrtoint ptr %19 to i64
  %21 = and i64 %20, -2
  %22 = inttoptr i64 %21 to ptr
  store ptr %22, ptr %6, align 8, !tbaa !3
  %23 = getelementptr i8, ptr %0, i64 32
  %.val = load ptr, ptr %23, align 8, !tbaa !8
  %24 = ptrtoint ptr %.val to i64
  %25 = sub i64 %17, %24
  %26 = sdiv exact i64 %25, 12
  %27 = trunc i64 %26 to i32
  %28 = sub i64 %21, %24
  %29 = sdiv exact i64 %28, 12
  %30 = trunc i64 %29 to i32
  %31 = icmp sgt i32 %27, %30
  br i1 %31, label %32, label %33

32:                                               ; preds = %14
  store ptr %22, ptr %5, align 8, !tbaa !3
  store ptr %18, ptr %6, align 8, !tbaa !3
  br label %33

33:                                               ; preds = %32, %14
  %34 = call ptr @Gia_ObjRecognizeMux(ptr noundef %1, ptr noundef nonnull %7, ptr noundef nonnull %8) #10
  %.not26 = icmp eq ptr %34, null
  br i1 %.not26, label %94, label %35

35:                                               ; preds = %33
  %36 = load ptr, ptr %7, align 8, !tbaa !3
  %37 = ptrtoint ptr %36 to i64
  %38 = and i64 %37, -2
  %39 = inttoptr i64 %38 to ptr
  store ptr %39, ptr %7, align 8, !tbaa !3
  %40 = load ptr, ptr %8, align 8, !tbaa !3
  %41 = ptrtoint ptr %40 to i64
  %42 = and i64 %41, -2
  %43 = inttoptr i64 %42 to ptr
  store ptr %43, ptr %8, align 8, !tbaa !3
  %44 = ptrtoint ptr %34 to i64
  %45 = and i64 %44, -2
  %.val39 = load i64, ptr %39, align 4
  %46 = and i64 %.val39, 2147483648
  %.not.i = icmp ne i64 %46, 0
  %47 = and i64 %.val39, 536870911
  %48 = icmp eq i64 %47, 536870911
  %narrow.i.not = or i1 %.not.i, %48
  br i1 %narrow.i.not, label %94, label %49

49:                                               ; preds = %35
  %.val40 = load i64, ptr %43, align 4
  %50 = and i64 %.val40, 2147483648
  %.not.i47 = icmp ne i64 %50, 0
  %51 = and i64 %.val40, 536870911
  %52 = icmp eq i64 %51, 536870911
  %narrow.i48.not = or i1 %.not.i47, %52
  br i1 %narrow.i48.not, label %94, label %53

53:                                               ; preds = %49
  %.val41 = load ptr, ptr %23, align 8, !tbaa !8
  %54 = ptrtoint ptr %.val41 to i64
  %55 = sub i64 %38, %54
  %56 = sdiv exact i64 %55, 12
  %57 = trunc i64 %56 to i32
  %58 = trunc i64 %.val39 to i32
  %59 = and i32 %58, 536870911
  %60 = sub nsw i32 %57, %59
  %61 = sub i64 %42, %54
  %62 = sdiv exact i64 %61, 12
  %63 = trunc i64 %62 to i32
  %64 = trunc i64 %.val40 to i32
  %65 = and i32 %64, 536870911
  %66 = sub nsw i32 %63, %65
  %.not29 = icmp eq i32 %60, %66
  br i1 %.not29, label %67, label %94

67:                                               ; preds = %53
  %68 = lshr i64 %.val39, 32
  %69 = trunc nuw i64 %68 to i32
  %70 = and i32 %69, 536870911
  %71 = sub nsw i32 %57, %70
  %72 = lshr i64 %.val40, 32
  %73 = trunc nuw i64 %72 to i32
  %74 = and i32 %73, 536870911
  %75 = sub nsw i32 %63, %74
  %.not30 = icmp eq i32 %71, %75
  br i1 %.not30, label %76, label %94

76:                                               ; preds = %67
  %77 = load ptr, ptr %5, align 8, !tbaa !3
  %78 = ptrtoint ptr %77 to i64
  %79 = sub i64 %78, %54
  %80 = sdiv exact i64 %79, 12
  %81 = trunc i64 %80 to i32
  %.not31 = icmp eq i32 %60, %81
  br i1 %.not31, label %82, label %94

82:                                               ; preds = %76
  %83 = load ptr, ptr %6, align 8, !tbaa !3
  %84 = ptrtoint ptr %83 to i64
  %85 = sub i64 %84, %54
  %86 = sdiv exact i64 %85, 12
  %87 = trunc i64 %86 to i32
  %.not32 = icmp eq i32 %71, %87
  br i1 %.not32, label %88, label %94

88:                                               ; preds = %82
  store i32 %60, ptr %3, align 4, !tbaa !29
  %89 = getelementptr inbounds nuw i8, ptr %3, i64 4
  store i32 %71, ptr %89, align 4, !tbaa !29
  %90 = sub i64 %45, %54
  %91 = sdiv exact i64 %90, 12
  %92 = trunc i64 %91 to i32
  %93 = getelementptr inbounds nuw i8, ptr %3, i64 8
  store i32 %92, ptr %93, align 4, !tbaa !29
  br label %94

94:                                               ; preds = %76, %82, %53, %67, %35, %49, %33, %12, %4, %10, %88
  %.0 = phi i32 [ 1, %88 ], [ 0, %10 ], [ 0, %4 ], [ 0, %12 ], [ 0, %33 ], [ 0, %49 ], [ 0, %35 ], [ 0, %67 ], [ 0, %53 ], [ 0, %82 ], [ 0, %76 ]
  call void @llvm.lifetime.end.p0(i64 8, ptr nonnull %8) #10
  call void @llvm.lifetime.end.p0(i64 8, ptr nonnull %7) #10
  call void @llvm.lifetime.end.p0(i64 8, ptr nonnull %6) #10
  call void @llvm.lifetime.end.p0(i64 8, ptr nonnull %5) #10
  ret i32 %.0
}